target datalayout = "e-m:e-p270:32:32-p271:32:32-p272:64:64-i64:64-i128:128-f80:128-n8:16:32:64-S128"
target triple = "x86_64-pc-linux-gnu"

%"class.LightGBM::Tree" = type { ptr, i32, i32, %"class.std::vector", %"class.std::vector", %"class.std::vector", %"class.std::vector", %"class.std::vector.0", %"class.std::vector.5", i32, %"class.std::vector", %"class.std::vector.0", %"class.std::vector", %"class.std::vector.0", %"class.std::vector.10", %"class.std::vector.15", %"class.std::vector", %"class.std::vector.5", %"class.std::vector.5", %"class.std::vector", %"class.std::vector.5", %"class.std::vector.5", %"class.std::vector", %"class.std::vector", i8, %"class.std::vector.20", double, i32, i8, %"class.std::vector.25", %"class.std::vector.5", %"class.std::vector.20", %"class.std::vector.20" }
%"class.std::vector.0" = type { %"struct.std::_Vector_base.1" }
%"struct.std::_Vector_base.1" = type { %"struct.std::_Vector_base<unsigned int, std::allocator<unsigned int>>::_Vector_impl" }
%"struct.std::_Vector_base<unsigned int, std::allocator<unsigned int>>::_Vector_impl" = type { %"struct.std::_Vector_base<unsigned int, std::allocator<unsigned int>>::_Vector_impl_data" }
%"struct.std::_Vector_base<unsigned int, std::allocator<unsigned int>>::_Vector_impl_data" = type { ptr, ptr, ptr }
%"class.std::vector.10" = type { %"struct.std::_Vector_base.11" }
%"struct.std::_Vector_base.11" = type { %"struct.std::_Vector_base<signed char, std::allocator<signed char>>::_Vector_impl" }
%"struct.std::_Vector_base<signed char, std::allocator<signed char>>::_Vector_impl" = type { %"struct.std::_Vector_base<signed char, std::allocator<signed char>>::_Vector_impl_data" }
%"struct.std::_Vector_base<signed char, std::allocator<signed char>>::_Vector_impl_data" = type { ptr, ptr, ptr }
%"class.std::vector.15" = type { %"struct.std::_Vector_base.16" }
%"struct.std::_Vector_base.16" = type { %"struct.std::_Vector_base<float, std::allocator<float>>::_Vector_impl" }
%"struct.std::_Vector_base<float, std::allocator<float>>::_Vector_impl" = type { %"struct.std::_Vector_base<float, std::allocator<float>>::_Vector_impl_data" }
%"struct.std::_Vector_base<float, std::allocator<float>>::_Vector_impl_data" = type { ptr, ptr, ptr }
%"class.std::vector" = type { %"struct.std::_Vector_base" }
%"struct.std::_Vector_base" = type { %"struct.std::_Vector_base<int, std::allocator<int>>::_Vector_impl" }
%"struct.std::_Vector_base<int, std::allocator<int>>::_Vector_impl" = type { %"struct.std::_Vector_base<int, std::allocator<int>>::_Vector_impl_data" }
%"struct.std::_Vector_base<int, std::allocator<int>>::_Vector_impl_data" = type { ptr, ptr, ptr }
%"class.std::vector.25" = type { %"struct.std::_Vector_base.26" }
%"struct.std::_Vector_base.26" = type { %"struct.std::_Vector_base<std::vector<double>, std::allocator<std::vector<double>>>::_Vector_impl" }
%"struct.std::_Vector_base<std::vector<double>, std::allocator<std::vector<double>>>::_Vector_impl" = type { %"struct.std::_Vector_base<std::vector<double>, std::allocator<std::vector<double>>>::_Vector_impl_data" }
%"struct.std::_Vector_base<std::vector<double>, std::allocator<std::vector<double>>>::_Vector_impl_data" = type { ptr, ptr, ptr }
%"class.std::vector.5" = type { %"struct.std::_Vector_base.6" }
%"struct.std::_Vector_base.6" = type { %"struct.std::_Vector_base<double, std::allocator<double>>::_Vector_impl" }
%"struct.std::_Vector_base<double, std::allocator<double>>::_Vector_impl" = type { %"struct.std::_Vector_base<double, std::allocator<double>>::_Vector_impl_data" }
%"struct.std::_Vector_base<double, std::allocator<double>>::_Vector_impl_data" = type { ptr, ptr, ptr }
%"class.std::vector.20" = type { %"struct.std::_Vector_base.21" }
%"struct.std::_Vector_base.21" = type { %"struct.std::_Vector_base<std::vector<int>, std::allocator<std::vector<int>>>::_Vector_impl" }
%"struct.std::_Vector_base<std::vector<int>, std::allocator<std::vector<int>>>::_Vector_impl" = type { %"struct.std::_Vector_base<std::vector<int>, std::allocator<std::vector<int>>>::_Vector_impl_data" }
%"struct.std::_Vector_base<std::vector<int>, std::allocator<std::vector<int>>>::_Vector_impl_data" = type { ptr, ptr, ptr }

; Function Attrs: inlinehint mustprogress nounwind uwtable
define linkonce_odr noundef i32 @_ZNK8LightGBM4Tree10num_leavesEv(ptr noundef nonnull align 8 dereferenceable(648) %0) #3 comdat align 2 {
  %2 = alloca ptr, align 8
  store ptr %0, ptr %2, align 8, !tbaa !4
  %3 = load ptr, ptr %2, align 8
  %4 = getelementptr inbounds nuw %"class.LightGBM::Tree", ptr %3, i32 0, i32 2
  %5 = load i32, ptr %4, align 4, !tbaa !56
  ret i32 %5
}

; Function Attrs: mustprogress nounwind uwtable
define linkonce_odr noundef nonnull align 4 dereferenceable(4) ptr @_ZNSt6vectorIiSaIiEEixEm(ptr noundef nonnull align 8 dereferenceable(24) %0, i64 noundef %1) #0 comdat align 2 {
  %3 = alloca ptr, align 8
  %4 = alloca i64, align 8
  store ptr %0, ptr %3, align 8, !tbaa !62
  store i64 %1, ptr %4, align 8, !tbaa !132
  %5 = load ptr, ptr %3, align 8
  %6 = getelementptr inbounds nuw %"struct.std::_Vector_base", ptr %5, i32 0, i32 0
  %7 = getelementptr inbounds nuw %"struct.std::_Vector_base<int, std::allocator<int>>::_Vector_impl_data", ptr %6, i32 0, i32 0
  %8 = load ptr, ptr %7, align 8, !tbaa !150
  %9 = load i64, ptr %4, align 8, !tbaa !132
  %10 = getelementptr inbounds nuw i32, ptr %8, i64 %9
  ret ptr %10
}

; Function Attrs: mustprogress nounwind uwtable
define linkonce_odr noundef i64 @_ZNKSt6vectorIiSaIiEE4sizeEv(ptr noundef nonnull align 8 dereferenceable(24) %0) #0 comdat align 2 {
  %2 = alloca ptr, align 8
  store ptr %0, ptr %2, align 8, !tbaa !62
  %3 = load ptr, ptr %2, align 8
  %4 = getelementptr inbounds nuw %"struct.std::_Vector_base", ptr %3, i32 0, i32 0
  %5 = getelementptr inbounds nuw %"struct.std::_Vector_base<int, std::allocator<int>>::_Vector_impl_data", ptr %4, i32 0, i32 1
  %6 = load ptr, ptr %5, align 8, !tbaa !169
  %7 = getelementptr inbounds nuw %"struct.std::_Vector_base", ptr %3, i32 0, i32 0
  %8 = getelementptr inbounds nuw %"struct.std::_Vector_base<int, std::allocator<int>>::_Vector_impl_data", ptr %7, i32 0, i32 0
  %9 = load ptr, ptr %8, align 8, !tbaa !150
  %10 = ptrtoint ptr %6 to i64
  %11 = ptrtoint ptr %9 to i64
  %12 = sub i64 %10, %11
  %13 = sdiv exact i64 %12, 4
  ret i64 %13
}

; Function Attrs: mustprogress uwtable
define void @_ZN8LightGBM4Tree17RecomputeMaxDepthEv(ptr noundef nonnull align 8 dereferenceable(648) %0) #1 align 2 {
  %2 = alloca ptr, align 8
  %3 = alloca i32, align 4
  store ptr %0, ptr %2, align 8, !tbaa !4
  %4 = load ptr, ptr %2, align 8
  %5 = getelementptr inbounds nuw %"class.LightGBM::Tree", ptr %4, i32 0, i32 2
  %6 = load i32, ptr %5, align 4, !tbaa !56
  %7 = icmp eq i32 %6, 1
  br i1 %7, label %8, label %10

8:                                                ; preds = %1
  %9 = getelementptr inbounds nuw %"class.LightGBM::Tree", ptr %4, i32 0, i32 27
  store i32 0, ptr %9, align 8, !tbaa !140
  br label %46

10:                                               ; preds = %1
  %11 = getelementptr inbounds nuw %"class.LightGBM::Tree", ptr %4, i32 0, i32 23
  %12 = call noundef i64 @_ZNKSt6vectorIiSaIiEE4sizeEv(ptr noundef nonnull align 8 dereferenceable(24) %11) #7
  %13 = icmp eq i64 %12, 0
  br i1 %13, label %14, label %15

14:                                               ; preds = %10
  call void @_ZN8LightGBM4Tree19RecomputeLeafDepthsEii(ptr noundef nonnull align 8 dereferenceable(648) %4, i32 noundef 0, i32 noundef 0)
  br label %15

15:                                               ; preds = %14, %10
  %16 = getelementptr inbounds nuw %"class.LightGBM::Tree", ptr %4, i32 0, i32 23
  %17 = call noundef nonnull align 4 dereferenceable(4) ptr @_ZNSt6vectorIiSaIiEEixEm(ptr noundef nonnull align 8 dereferenceable(24) %16, i64 noundef 0) #7
  %18 = load i32, ptr %17, align 4, !tbaa !13
  %19 = getelementptr inbounds nuw %"class.LightGBM::Tree", ptr %4, i32 0, i32 27
  store i32 %18, ptr %19, align 8, !tbaa !140
  call void @llvm.lifetime.start.p0(i64 4, ptr %3) #7
  store i32 1, ptr %3, align 4, !tbaa !13
  br label %20

20:                                               ; preds = %42, %15
  %21 = load i32, ptr %3, align 4, !tbaa !13
  %22 = call noundef i32 @_ZNK8LightGBM4Tree10num_leavesEv(ptr noundef nonnull align 8 dereferenceable(648) %4)
  %23 = icmp slt i32 %21, %22
  br i1 %23, label %25, label %24

24:                                               ; preds = %20
  call void @llvm.lifetime.end.p0(i64 4, ptr %3) #7
  br label %45

25:                                               ; preds = %20
  %26 = getelementptr inbounds nuw %"class.LightGBM::Tree", ptr %4, i32 0, i32 27
  %27 = load i32, ptr %26, align 8, !tbaa !140
  %28 = getelementptr inbounds nuw %"class.LightGBM::Tree", ptr %4, i32 0, i32 23
  %29 = load i32, ptr %3, align 4, !tbaa !13
  %30 = sext i32 %29 to i64
  %31 = call noundef nonnull align 4 dereferenceable(4) ptr @_ZNSt6vectorIiSaIiEEixEm(ptr noundef nonnull align 8 dereferenceable(24) %28, i64 noundef %30) #7
  %32 = load i32, ptr %31, align 4, !tbaa !13
  %33 = icmp slt i32 %27, %32
  br i1 %33, label %34, label %41

34:                                               ; preds = %25
  %35 = getelementptr inbounds nuw %"class.LightGBM::Tree", ptr %4, i32 0, i32 23
  %36 = load i32, ptr %3, align 4, !tbaa !13
  %37 = sext i32 %36 to i64
  %38 = call noundef nonnull align 4 dereferenceable(4) ptr @_ZNSt6vectorIiSaIiEEixEm(ptr noundef nonnull align 8 dereferenceable(24) %35, i64 noundef %37) #7
  %39 = load i32, ptr %38, align 4, !tbaa !13
  %40 = getelementptr inbounds nuw %"class.LightGBM::Tree", ptr %4, i32 0, i32 27
  store i32 %39, ptr %40, align 8, !tbaa !140
  br label %41

41:                                               ; preds = %34, %25
  br label %42

42:                                               ; preds = %41
  %43 = load i32, ptr %3, align 4, !tbaa !13
  %44 = add nsw i32 %43, 1
  store i32 %44, ptr %3, align 4, !tbaa !13
  br label %20, !llvm.loop !1620

45:                                               ; preds = %24
  br label %46

46:                                               ; preds = %45, %8
  ret void
}