; Function Attrs: mustprogress uwtable
define void @_ZN8LightGBM4Tree17RecomputeMaxDepthEv(ptr noundef nonnull align 8 dereferenceable(648) %0) local_unnamed_addr #1 align 2 {
  %2 = getelementptr inbounds nuw i8, ptr %0, i64 12
  %3 = load i32, ptr %2, align 4, !tbaa !130
  %4 = icmp eq i32 %3, 1
  br i1 %4, label %5, label %7

5:                                                ; preds = %1
  %6 = getelementptr inbounds nuw i8, ptr %0, i64 544
  store i32 0, ptr %6, align 8, !tbaa !162
  br label %.loopexit

7:                                                ; preds = %1
  %8 = getelementptr inbounds nuw i8, ptr %0, i64 480
  %9 = getelementptr inbounds nuw i8, ptr %0, i64 488
  %10 = load ptr, ptr %9, align 8, !tbaa !156
  %11 = load ptr, ptr %8, align 8, !tbaa !13
  %12 = icmp eq ptr %10, %11
  br i1 %12, label %13, label %14

13:                                               ; preds = %7
  tail call void @_ZN8LightGBM4Tree19RecomputeLeafDepthsEii(ptr noundef nonnull align 8 dereferenceable(648) %0, i32 noundef 0, i32 noundef 0)
  %.pre = load ptr, ptr %8, align 8, !tbaa !13
  %.pre6 = load i32, ptr %2, align 4, !tbaa !130
  br label %14

14:                                               ; preds = %13, %7
  %15 = phi i32 [ %.pre6, %13 ], [ %3, %7 ]
  %16 = phi ptr [ %.pre, %13 ], [ %11, %7 ]
  %17 = load i32, ptr %16, align 4, !tbaa !36
  %18 = getelementptr inbounds nuw i8, ptr %0, i64 544
  store i32 %17, ptr %18, align 8, !tbaa !162
  %19 = icmp sgt i32 %15, 1
  br i1 %19, label %.lr.ph.preheader, label %.loopexit

.lr.ph.preheader:                                 ; preds = %14
  %wide.trip.count = zext nneg i32 %15 to i64
  br label %.lr.ph

.lr.ph:                                           ; preds = %.lr.ph.preheader, %25
  %indvars.iv = phi i64 [ 1, %.lr.ph.preheader ], [ %indvars.iv.next, %25 ]
  %20 = phi i32 [ %17, %.lr.ph.preheader ], [ %26, %25 ]
  %21 = getelementptr inbounds nuw i32, ptr %16, i64 %indvars.iv
  %22 = load i32, ptr %21, align 4, !tbaa !36
  %23 = icmp slt i32 %20, %22
  br i1 %23, label %24, label %25

24:                                               ; preds = %.lr.ph
  store i32 %22, ptr %18, align 8, !tbaa !162
  br label %25

25:                                               ; preds = %.lr.ph, %24
  %26 = phi i32 [ %20, %.lr.ph ], [ %22, %24 ]
  %indvars.iv.next = add nuw nsw i64 %indvars.iv, 1
  %exitcond.not = icmp eq i64 %indvars.iv.next, %wide.trip.count
  br i1 %exitcond.not, label %.loopexit, label %.lr.ph, !llvm.loop !1080

.loopexit:                                        ; preds = %25, %14, %5
  ret void
}